; Function Attrs: nounwind uwtable
define dso_local range(i32 -1, 1) i32 @PyRun_InteractiveLoopFlags(ptr noundef %0, ptr noundef %1, ptr noundef %2) local_unnamed_addr #0 {
  %4 = tail call ptr @PyUnicode_DecodeFSDefault(ptr noundef %1) #8
  %5 = icmp eq ptr %4, null
  br i1 %5, label %6, label %9

6:                                                ; preds = %3
  %7 = tail call align 8 ptr @llvm.threadlocal.address.p0(ptr align 8 @_Py_tss_tstate)
  %8 = load ptr, ptr %7, align 8, !tbaa !4
  tail call fastcc void @_PyErr_PrintEx(ptr noundef %8, i32 noundef 1)
  br label %Py_DECREF.exit

9:                                                ; preds = %3
  %10 = tail call i32 @_PyRun_InteractiveLoopObject(ptr noundef %0, ptr noundef nonnull %4, ptr noundef %2)
  %11 = load i32, ptr %4, align 8, !tbaa !9
  %.not.i = icmp sgt i32 %11, -1
  br i1 %.not.i, label %12, label %Py_DECREF.exit

12:                                               ; preds = %9
  %13 = add nsw i32 %11, -1
  store i32 %13, ptr %4, align 8, !tbaa !9
  %14 = icmp eq i32 %13, 0
  br i1 %14, label %15, label %Py_DECREF.exit

15:                                               ; preds = %12
  tail call void @_Py_Dealloc(ptr noundef nonnull %4) #8
  br label %Py_DECREF.exit

Py_DECREF.exit:                                   ; preds = %15, %12, %9, %6
  %.0 = phi i32 [ -1, %6 ], [ %10, %9 ], [ %10, %12 ], [ %10, %15 ]
  ret i32 %.0
}